(dp0
S'OriginalConfig'
p1
ccopy_reg
_reconstructor
p2
(cWMCore.Configuration
Configuration
p3
c__builtin__
object
p4
Ntp5
Rp6
(dp7
S'Site'
p8
g2
(cWMCore.Configuration
ConfigSection
p9
g4
Ntp10
Rp11
(dp12
S'_internal_skipChecks'
p13
I00
sS'_internal_documentation'
p14
S''
p15
sS'_internal_settings'
p16
c__builtin__
set
p17
((lp18
S'storageSite'
p19
atp20
Rp21
sS'_internal_name'
p22
g8
sS'_internal_docstrings'
p23
(dp24
sS'_internal_children'
p25
g17
((lp26
tp27
Rp28
sg19
S'T3_US_FNALLPC'
p29
sS'_internal_parent_ref'
p30
NsbsS'_internal_sections'
p31
(lp32
S'General'
p33
aS'JobType'
p34
aS'Data'
p35
ag8
aS'User'
p36
aS'Debug'
p37
asg36
g2
(g9
g4
Ntp38
Rp39
(dp40
g13
I00
sg14
g15
sg16
g17
((lp41
tp42
Rp43
sg22
g36
sg23
(dp44
sg25
g17
((lp45
tp46
Rp47
sg30
Nsbsg37
g2
(g9
g4
Ntp48
Rp49
(dp50
g13
I00
sg14
g15
sg16
g17
((lp51
tp52
Rp53
sg22
g37
sg23
(dp54
sg25
g17
((lp55
tp56
Rp57
sg30
Nsbsg33
g2
(g9
g4
Ntp58
Rp59
(dp60
S'transferLogs'
p61
I01
sg13
I00
sg14
g15
sg16
g17
((lp62
g61
aS'transferOutputs'
p63
aS'workArea'
p64
aS'requestName'
p65
atp66
Rp67
sg22
g33
sg23
(dp68
sg63
I01
sg25
g17
((lp69
tp70
Rp71
sg65
S'sim_HToAATo4Tau_Hadronic_tauDR0p4_M10_ctau0To3_eta0To2p4_pythia8_2018UL'
p72
sg30
Nsg64
S'crab_MC'
p73
sbsg35
g2
(g9
g4
Ntp74
Rp75
(dp76
S'inputDataset'
p77
S'/gen_HToAATo4Tau_Hadronic_tauDR0p4_M10_ctau0To3_eta0To2p4_pythia8_2018UL/lpcml-crab_gen_HToAATo4Tau_Hadronic_tauDR0p4_M10_ctau0To3_eta0To2p4_pythia8_2018UL-720d454354039bb04c7bc8eed758df57/USER'
p78
sS'outputDatasetTag'
p79
g72
sg13
I00
sS'splitting'
p80
S'FileBased'
p81
sS'unitsPerJob'
p82
I1
sg14
g15
sg16
g17
((lp83
g77
ag79
aS'totalUnits'
p84
ag82
aS'inputDBS'
p85
ag80
aS'outLFNDirBase'
p86
aS'publication'
p87
atp88
Rp89
sg22
g35
sg85
S'phys03'
p90
sg23
(dp91
sg25
g17
((lp92
tp93
Rp94
sg87
I01
sg86
S'/store/group/lpcml/bbbam/MCGeneration'
p95
sg30
Nsg84
I-1
sbsg34
g2
(g9
g4
Ntp96
Rp97
(dp98
g13
I00
sg14
g15
sg16
g17
((lp99
S'psetName'
p100
aS'pluginName'
p101
aS'maxMemoryMB'
p102
aS'allowUndistributedCMSSW'
p103
atp104
Rp105
sg22
g34
sg23
(dp106
sg101
S'Analysis'
p107
sg25
g17
((lp108
tp109
Rp110
sg103
I01
sg100
S'sim_HToAATo4Tau_RunIISummer20UL18_00066_1_withPU_cfg.py'
p111
sg30
Nsg102
I5000
sbsbsS'voGroup'
p112
g15
sS'Server'
p113
S'cmsweb.cern.ch'
p114
sS'instance'
p115
S'prod'
p116
sS'RequestName'
p117
V230512_123635:bhbam_crab_sim_HToAATo4Tau_Hadronic_tauDR0p4_M10_ctau0To3_eta0To2p4_pythia8_2018UL
p118
sS'voRole'
p119
S'NULL'
p120
sS'Port'
p121
g15
s.