(dp0
S'OriginalConfig'
p1
ccopy_reg
_reconstructor
p2
(cWMCore.Configuration
Configuration
p3
c__builtin__
object
p4
Ntp5
Rp6
(dp7
S'Site'
p8
g2
(cWMCore.Configuration
ConfigSection
p9
g4
Ntp10
Rp11
(dp12
S'_internal_skipChecks'
p13
I00
sS'_internal_documentation'
p14
S''
p15
sS'_internal_settings'
p16
c__builtin__
set
p17
((lp18
S'storageSite'
p19
atp20
Rp21
sS'_internal_name'
p22
g8
sS'_internal_docstrings'
p23
(dp24
sS'_internal_children'
p25
g17
((lp26
tp27
Rp28
sg19
S'T3_US_FNALLPC'
p29
sS'_internal_parent_ref'
p30
NsbsS'_internal_sections'
p31
(lp32
S'General'
p33
aS'JobType'
p34
aS'Data'
p35
ag8
aS'User'
p36
aS'Debug'
p37
asg36
g2
(g9
g4
Ntp38
Rp39
(dp40
g13
I00
sg14
g15
sg16
g17
((lp41
tp42
Rp43
sg22
g36
sg23
(dp44
sg25
g17
((lp45
tp46
Rp47
sg30
Nsbsg37
g2
(g9
g4
Ntp48
Rp49
(dp50
g13
I00
sg14
g15
sg16
g17
((lp51
tp52
Rp53
sg22
g37
sg23
(dp54
sg25
g17
((lp55
tp56
Rp57
sg30
Nsbsg33
g2
(g9
g4
Ntp58
Rp59
(dp60
S'transferLogs'
p61
I01
sg13
I00
sg14
g15
sg16
g17
((lp62
g61
aS'transferOutputs'
p63
aS'workArea'
p64
aS'requestName'
p65
atp66
Rp67
sg22
g33
sg23
(dp68
sg63
I01
sg25
g17
((lp69
tp70
Rp71
sg65
S'gen_HToAATo4Tau_Hadronic_tauDR0p4_M10_ctau0To3_eta0To2p4_pythia8_2018UL'
p72
sg30
Nsg64
S'crab_MC'
p73
sbsg35
g2
(g9
g4
Ntp74
Rp75
(dp76
g13
I00
sS'unitsPerJob'
p77
I15000
sg14
g15
sg16
g17
((lp78
S'publication'
p79
ag77
aS'splitting'
p80
aS'outLFNDirBase'
p81
aS'outputPrimaryDataset'
p82
aS'totalUnits'
p83
atp84
Rp85
sg81
S'/store/group/lpcml/bbbam/MCGeneration'
p86
sg22
g35
sg80
S'EventBased'
p87
sg23
(dp88
sg25
g17
((lp89
tp90
Rp91
sg79
I01
sg82
g72
sg30
Nsg83
I1500000
sbsg34
g2
(g9
g4
Ntp92
Rp93
(dp94
g13
I00
sg14
g15
sg16
g17
((lp95
S'psetName'
p96
aS'pluginName'
p97
aS'allowUndistributedCMSSW'
p98
aS'eventsPerLumi'
p99
atp100
Rp101
sg22
g34
sg23
(dp102
sg97
S'PrivateMC'
p103
sg25
g17
((lp104
tp105
Rp106
sg98
I01
sg96
S'gen_HToAATo4Tau_RunIISummer20UL18_00066_1_cfg.py'
p107
sg30
Nsg99
I6000
sbsbsS'voGroup'
p108
g15
sS'Server'
p109
S'cmsweb.cern.ch'
p110
sS'instance'
p111
S'prod'
p112
sS'RequestName'
p113
V230510_053835:bhbam_crab_gen_HToAATo4Tau_Hadronic_tauDR0p4_M10_ctau0To3_eta0To2p4_pythia8_2018UL
p114
sS'voRole'
p115
S'NULL'
p116
sS'Port'
p117
g15
s.